target datalayout = "e-m:e-p270:32:32-p271:32:32-p272:64:64-i64:64-i128:128-f80:128-n8:16:32:64-S128"
target triple = "x86_64-unknown-linux-gnu"

%"class.Imath_3_2::Matrix44" = type { [4 x [4 x float]] }
%"class.Imf_3_2::AcesInputFile::Data" = type <{ ptr, ptr, i64, i64, i32, i32, i8, [3 x i8], %"class.Imath_3_2::Matrix44", [4 x i8] }>
%"class.Imf_3_2::AcesInputFile" = type { ptr, ptr }

; Function Attrs: mustprogress uwtable
define void @_ZN7Imf_3_213AcesInputFile14setFrameBufferEPNS_4RgbaEmm(ptr noundef nonnull align 8 dereferenceable(16) %this, ptr noundef %base, i64 noundef %xStride, i64 noundef %yStride) #4 align 2 {
entry:
  %this.addr = alloca ptr, align 8
  %base.addr = alloca ptr, align 8
  %xStride.addr = alloca i64, align 8
  %yStride.addr = alloca i64, align 8
  store ptr %this, ptr %this.addr, align 8
  store ptr %base, ptr %base.addr, align 8
  store i64 %xStride, ptr %xStride.addr, align 8
  store i64 %yStride, ptr %yStride.addr, align 8
  %this1 = load ptr, ptr %this.addr, align 8
  %_data = getelementptr inbounds %"class.Imf_3_2::AcesInputFile", ptr %this1, i32 0, i32 1
  %0 = load ptr, ptr %_data, align 8
  %rgbaFile = getelementptr inbounds %"class.Imf_3_2::AcesInputFile::Data", ptr %0, i32 0, i32 0
  %1 = load ptr, ptr %rgbaFile, align 8
  %2 = load ptr, ptr %base.addr, align 8
  %3 = load i64, ptr %xStride.addr, align 8
  %4 = load i64, ptr %yStride.addr, align 8
  call void @_ZN7Imf_3_213RgbaInputFile14setFrameBufferEPNS_4RgbaEmm(ptr noundef nonnull align 8 dereferenceable(64) %1, ptr noundef %2, i64 noundef %3, i64 noundef %4)
  %5 = load ptr, ptr %base.addr, align 8
  %_data2 = getelementptr inbounds %"class.Imf_3_2::AcesInputFile", ptr %this1, i32 0, i32 1
  %6 = load ptr, ptr %_data2, align 8
  %fbBase = getelementptr inbounds %"class.Imf_3_2::AcesInputFile::Data", ptr %6, i32 0, i32 1
  store ptr %5, ptr %fbBase, align 8
  %7 = load i64, ptr %xStride.addr, align 8
  %_data3 = getelementptr inbounds %"class.Imf_3_2::AcesInputFile", ptr %this1, i32 0, i32 1
  %8 = load ptr, ptr %_data3, align 8
  %fbXStride = getelementptr inbounds %"class.Imf_3_2::AcesInputFile::Data", ptr %8, i32 0, i32 2
  store i64 %7, ptr %fbXStride, align 8
  %9 = load i64, ptr %yStride.addr, align 8
  %_data4 = getelementptr inbounds %"class.Imf_3_2::AcesInputFile", ptr %this1, i32 0, i32 1
  %10 = load ptr, ptr %_data4, align 8
  %fbYStride = getelementptr inbounds %"class.Imf_3_2::AcesInputFile::Data", ptr %10, i32 0, i32 3
  store i64 %9, ptr %fbYStride, align 8
  ret void
}