; Function Attrs: mustprogress uwtable
define void @_ZN7Imf_3_213AcesInputFile14setFrameBufferEPNS_4RgbaEmm(ptr nocapture noundef nonnull readonly align 8 dereferenceable(16) %this, ptr noundef %base, i64 noundef %xStride, i64 noundef %yStride) local_unnamed_addr #3 align 2 {
entry:
  %_data = getelementptr inbounds i8, ptr %this, i64 8
  %0 = load ptr, ptr %_data, align 8
  %1 = load ptr, ptr %0, align 8
  tail call void @_ZN7Imf_3_213RgbaInputFile14setFrameBufferEPNS_4RgbaEmm(ptr noundef nonnull align 8 dereferenceable(64) %1, ptr noundef %base, i64 noundef %xStride, i64 noundef %yStride)
  %2 = load ptr, ptr %_data, align 8
  %fbBase = getelementptr inbounds i8, ptr %2, i64 8
  store ptr %base, ptr %fbBase, align 8
  %3 = load ptr, ptr %_data, align 8
  %fbXStride = getelementptr inbounds i8, ptr %3, i64 16
  store i64 %xStride, ptr %fbXStride, align 8
  %4 = load ptr, ptr %_data, align 8
  %fbYStride = getelementptr inbounds i8, ptr %4, i64 24
  store i64 %yStride, ptr %fbYStride, align 8
  ret void
}